; ModuleID = '5/703.c'
source_filename = "5/703.c"
target datalayout = "e-m:e-p270:32:32-p271:32:32-p272:64:64-i64:64-f80:128-n8:16:32:64-S128"
target triple = "x86_64-pc-linux-gnu"

@.str = private unnamed_addr constant [4 x i8] c"%lf\00", align 1
@.str.1 = private unnamed_addr constant [3 x i8] c"%s\00", align 1
@.str.2 = private unnamed_addr constant [7 x i8] c"error\0A\00", align 1
@.str.3 = private unnamed_addr constant [5 x i8] c"yes\0A\00", align 1
@.str.4 = private unnamed_addr constant [4 x i8] c"no\0A\00", align 1

; Function Attrs: noinline nounwind uwtable
define dso_local i32 @main() #0 {
  %1 = alloca i32, align 4
  %2 = alloca i32, align 4
  %3 = alloca i32, align 4
  %4 = alloca i32, align 4
  %5 = alloca i32, align 4
  %6 = alloca i32, align 4
  %7 = alloca double, align 8
  %8 = alloca double, align 8
  %9 = alloca double, align 8
  %10 = alloca [2 x [100 x i8]], align 16
  store i32 0, i32* %1, align 4
  store i32 0, i32* %4, align 4
  store double 0.000000e+00, double* %9, align 8
  %11 = call i32 (i8*, ...) @__isoc99_scanf(i8* getelementptr inbounds ([4 x i8], [4 x i8]* @.str, i64 0, i64 0), double* %7)
  store i32 0, i32* %2, align 4
  br label %12

12:                                               ; preds = %20, %0
  %13 = load i32, i32* %2, align 4
  %14 = icmp slt i32 %13, 2
  br i1 %14, label %15, label %23

15:                                               ; preds = %12
  %16 = load i32, i32* %2, align 4
  %17 = sext i32 %16 to i64
  %18 = getelementptr inbounds [2 x [100 x i8]], [2 x [100 x i8]]* %10, i64 0, i64 %17
  %19 = call i32 (i8*, ...) @__isoc99_scanf(i8* getelementptr inbounds ([3 x i8], [3 x i8]* @.str.1, i64 0, i64 0), [100 x i8]* %18)
  br label %20

20:                                               ; preds = %15
  %21 = load i32, i32* %2, align 4
  %22 = add nsw i32 %21, 1
  store i32 %22, i32* %2, align 4
  br label %12

23:                                               ; preds = %12
  %24 = getelementptr inbounds [2 x [100 x i8]], [2 x [100 x i8]]* %10, i64 0, i64 0
  %25 = getelementptr inbounds [100 x i8], [100 x i8]* %24, i64 0, i64 0
  %26 = call i64 @strlen(i8* %25) #3
  %27 = trunc i64 %26 to i32
  store i32 %27, i32* %5, align 4
  %28 = getelementptr inbounds [2 x [100 x i8]], [2 x [100 x i8]]* %10, i64 0, i64 1
  %29 = getelementptr inbounds [100 x i8], [100 x i8]* %28, i64 0, i64 0
  %30 = call i64 @strlen(i8* %29) #3
  %31 = trunc i64 %30 to i32
  store i32 %31, i32* %6, align 4
  store i32 0, i32* %2, align 4
  br label %32

32:                                               ; preds = %104, %23
  %33 = load i32, i32* %2, align 4
  %34 = icmp slt i32 %33, 2
  br i1 %34, label %35, label %107

35:                                               ; preds = %32
  %36 = load i32, i32* %2, align 4
  %37 = sext i32 %36 to i64
  %38 = getelementptr inbounds [2 x [100 x i8]], [2 x [100 x i8]]* %10, i64 0, i64 %37
  %39 = getelementptr inbounds [100 x i8], [100 x i8]* %38, i64 0, i64 0
  %40 = call i64 @strlen(i8* %39) #3
  %41 = uitofp i64 %40 to double
  store double %41, double* %8, align 8
  store i32 0, i32* %3, align 4
  br label %42

42:                                               ; preds = %96, %35
  %43 = load i32, i32* %3, align 4
  %44 = sitofp i32 %43 to double
  %45 = load double, double* %8, align 8
  %46 = fcmp olt double %44, %45
  br i1 %46, label %47, label %99

47:                                               ; preds = %42
  %48 = load i32, i32* %2, align 4
  %49 = sext i32 %48 to i64
  %50 = getelementptr inbounds [2 x [100 x i8]], [2 x [100 x i8]]* %10, i64 0, i64 %49
  %51 = load i32, i32* %3, align 4
  %52 = sext i32 %51 to i64
  %53 = getelementptr inbounds [100 x i8], [100 x i8]* %50, i64 0, i64 %52
  %54 = load i8, i8* %53, align 1
  %55 = sext i8 %54 to i32
  %56 = icmp ne i32 %55, 65
  br i1 %56, label %57, label %87

57:                                               ; preds = %47
  %58 = load i32, i32* %2, align 4
  %59 = sext i32 %58 to i64
  %60 = getelementptr inbounds [2 x [100 x i8]], [2 x [100 x i8]]* %10, i64 0, i64 %59
  %61 = load i32, i32* %3, align 4
  %62 = sext i32 %61 to i64
  %63 = getelementptr inbounds [100 x i8], [100 x i8]* %60, i64 0, i64 %62
  %64 = load i8, i8* %63, align 1
  %65 = sext i8 %64 to i32
  %66 = icmp ne i32 %65, 67
  br i1 %66, label %67, label %87

67:                                               ; preds = %57
  %68 = load i32, i32* %2, align 4
  %69 = sext i32 %68 to i64
  %70 = getelementptr inbounds [2 x [100 x i8]], [2 x [100 x i8]]* %10, i64 0, i64 %69
  %71 = load i32, i32* %3, align 4
  %72 = sext i32 %71 to i64
  %73 = getelementptr inbounds [100 x i8], [100 x i8]* %70, i64 0, i64 %72
  %74 = load i8, i8* %73, align 1
  %75 = sext i8 %74 to i32
  %76 = icmp ne i32 %75, 71
  br i1 %76, label %77, label %87

77:                                               ; preds = %67
  %78 = load i32, i32* %2, align 4
  %79 = sext i32 %78 to i64
  %80 = getelementptr inbounds [2 x [100 x i8]], [2 x [100 x i8]]* %10, i64 0, i64 %79
  %81 = load i32, i32* %3, align 4
  %82 = sext i32 %81 to i64
  %83 = getelementptr inbounds [100 x i8], [100 x i8]* %80, i64 0, i64 %82
  %84 = load i8, i8* %83, align 1
  %85 = sext i8 %84 to i32
  %86 = icmp ne i32 %85, 84
  br i1 %86, label %91, label %87

87:                                               ; preds = %77, %67, %57, %47
  %88 = load i32, i32* %5, align 4
  %89 = load i32, i32* %6, align 4
  %90 = icmp ne i32 %88, %89
  br i1 %90, label %91, label %95

91:                                               ; preds = %87, %77
  %92 = call i32 (i8*, ...) @printf(i8* getelementptr inbounds ([7 x i8], [7 x i8]* @.str.2, i64 0, i64 0))
  %93 = load i32, i32* %4, align 4
  %94 = add nsw i32 %93, 1
  store i32 %94, i32* %4, align 4
  br label %99

95:                                               ; preds = %87
  br label %96

96:                                               ; preds = %95
  %97 = load i32, i32* %3, align 4
  %98 = add nsw i32 %97, 1
  store i32 %98, i32* %3, align 4
  br label %42

99:                                               ; preds = %91, %42
  %100 = load i32, i32* %4, align 4
  %101 = icmp sgt i32 %100, 0
  br i1 %101, label %102, label %103

102:                                              ; preds = %99
  br label %107

103:                                              ; preds = %99
  br label %104

104:                                              ; preds = %103
  %105 = load i32, i32* %2, align 4
  %106 = add nsw i32 %105, 1
  store i32 %106, i32* %2, align 4
  br label %32

107:                                              ; preds = %102, %32
  store i32 0, i32* %3, align 4
  br label %108

108:                                              ; preds = %135, %107
  %109 = load i32, i32* %3, align 4
  %110 = sitofp i32 %109 to double
  %111 = load double, double* %8, align 8
  %112 = fcmp olt double %110, %111
  br i1 %112, label %113, label %138

113:                                              ; preds = %108
  %114 = load i32, i32* %4, align 4
  %115 = icmp eq i32 %114, 0
  br i1 %115, label %116, label %134

116:                                              ; preds = %113
  %117 = getelementptr inbounds [2 x [100 x i8]], [2 x [100 x i8]]* %10, i64 0, i64 0
  %118 = load i32, i32* %3, align 4
  %119 = sext i32 %118 to i64
  %120 = getelementptr inbounds [100 x i8], [100 x i8]* %117, i64 0, i64 %119
  %121 = load i8, i8* %120, align 1
  %122 = sext i8 %121 to i32
  %123 = getelementptr inbounds [2 x [100 x i8]], [2 x [100 x i8]]* %10, i64 0, i64 1
  %124 = load i32, i32* %3, align 4
  %125 = sext i32 %124 to i64
  %126 = getelementptr inbounds [100 x i8], [100 x i8]* %123, i64 0, i64 %125
  %127 = load i8, i8* %126, align 1
  %128 = sext i8 %127 to i32
  %129 = icmp eq i32 %122, %128
  br i1 %129, label %130, label %133

130:                                              ; preds = %116
  %131 = load double, double* %9, align 8
  %132 = fadd double %131, 1.000000e+00
  store double %132, double* %9, align 8
  br label %133

133:                                              ; preds = %130, %116
  br label %134

134:                                              ; preds = %133, %113
  br label %135

135:                                              ; preds = %134
  %136 = load i32, i32* %3, align 4
  %137 = add nsw i32 %136, 1
  store i32 %137, i32* %3, align 4
  br label %108

138:                                              ; preds = %108
  %139 = load i32, i32* %4, align 4
  %140 = icmp eq i32 %139, 0
  br i1 %140, label %141, label %149

141:                                              ; preds = %138
  %142 = load double, double* %9, align 8
  %143 = load double, double* %8, align 8
  %144 = fdiv double %142, %143
  %145 = load double, double* %7, align 8
  %146 = fcmp ogt double %144, %145
  br i1 %146, label %147, label %149

147:                                              ; preds = %141
  %148 = call i32 (i8*, ...) @printf(i8* getelementptr inbounds ([5 x i8], [5 x i8]* @.str.3, i64 0, i64 0))
  br label %161

149:                                              ; preds = %141, %138
  %150 = load i32, i32* %4, align 4
  %151 = icmp eq i32 %150, 0
  br i1 %151, label %152, label %160

152:                                              ; preds = %149
  %153 = load double, double* %9, align 8
  %154 = load double, double* %8, align 8
  %155 = fdiv double %153, %154
  %156 = load double, double* %7, align 8
  %157 = fcmp ole double %155, %156
  br i1 %157, label %158, label %160

158:                                              ; preds = %152
  %159 = call i32 (i8*, ...) @printf(i8* getelementptr inbounds ([4 x i8], [4 x i8]* @.str.4, i64 0, i64 0))
  br label %160

160:                                              ; preds = %158, %152, %149
  br label %161

161:                                              ; preds = %160, %147
  ret i32 0
}

declare dso_local i32 @__isoc99_scanf(i8*, ...) #1

; Function Attrs: nounwind readonly
declare dso_local i64 @strlen(i8*) #2

declare dso_local i32 @printf(i8*, ...) #1


!llvm.module.flags = !{!0}
!llvm.ident = !{!1}

!0 = !{i32 1, !"wchar_size", i32 4}
!1 = !{!"clang version 10.0.0-4ubuntu1 "}
